target datalayout = "e-m:e-p270:32:32-p271:32:32-p272:64:64-i64:64-i128:128-f80:128-n8:16:32:64-S128"
target triple = "x86_64-pc-linux-gnu"

%struct.pmix_list_t = type { %struct.pmix_object_t, %struct.pmix_list_item_t, i64 }
%struct.pmix_object_t = type { %union.pthread_mutex_t, ptr, i32, %struct.pmix_tma }
%union.pthread_mutex_t = type { %struct.__pthread_mutex_s }
%struct.__pthread_mutex_s = type { i32, i32, i32, i32, i32, i16, i16, %struct.__pthread_internal_list }
%struct.__pthread_internal_list = type { ptr, ptr }
%struct.pmix_tma = type { ptr, ptr, ptr, ptr, ptr, ptr, ptr, ptr }
%struct.pmix_list_item_t = type { %struct.pmix_object_t, ptr, ptr, i32 }
%struct.prte_node_t = type { %struct.pmix_list_item_t, i32, ptr, ptr, ptr, ptr, ptr, ptr, i16, ptr, i16, i8, i32, i32, i32, i32, ptr, i8, %struct.pmix_list_t }

@.str = private unnamed_addr constant [5 x i8] c"auto\00", align 1

; Function Attrs: nounwind uwtable
define i32 @prte_util_dash_host_compute_slots(ptr noundef %0, ptr noundef %1) #0 {
  %3 = alloca ptr, align 8
  %4 = alloca ptr, align 8
  %5 = alloca ptr, align 8
  %6 = alloca ptr, align 8
  %7 = alloca i32, align 4
  %8 = alloca i32, align 4
  store ptr %0, ptr %3, align 8, !tbaa !3
  store ptr %1, ptr %4, align 8, !tbaa !7
  call void @llvm.lifetime.start.p0(i64 8, ptr %5) #12
  call void @llvm.lifetime.start.p0(i64 8, ptr %6) #12
  call void @llvm.lifetime.start.p0(i64 4, ptr %7) #12
  store i32 0, ptr %7, align 4, !tbaa !9
  call void @llvm.lifetime.start.p0(i64 4, ptr %8) #12
  %9 = load ptr, ptr %4, align 8, !tbaa !7
  %10 = call ptr @PMIx_Argv_split(ptr noundef %9, i32 noundef 44)
  store ptr %10, ptr %5, align 8, !tbaa !11
  store i32 0, ptr %8, align 4, !tbaa !9
  br label %11

11:                                               ; preds = %74, %2
  %12 = load ptr, ptr %5, align 8, !tbaa !11
  %13 = load i32, ptr %8, align 4, !tbaa !9
  %14 = sext i32 %13 to i64
  %15 = getelementptr inbounds ptr, ptr %12, i64 %14
  %16 = load ptr, ptr %15, align 8, !tbaa !7
  %17 = icmp ne ptr null, %16
  br i1 %17, label %18, label %77

18:                                               ; preds = %11
  %19 = load ptr, ptr %5, align 8, !tbaa !11
  %20 = load i32, ptr %8, align 4, !tbaa !9
  %21 = sext i32 %20 to i64
  %22 = getelementptr inbounds ptr, ptr %19, i64 %21
  %23 = load ptr, ptr %22, align 8, !tbaa !7
  %24 = call ptr @strchr(ptr noundef %23, i32 noundef 58) #13
  store ptr %24, ptr %6, align 8, !tbaa !7
  %25 = icmp ne ptr null, %24
  br i1 %25, label %26, label %30

26:                                               ; preds = %18
  %27 = load ptr, ptr %6, align 8, !tbaa !7
  store i8 0, ptr %27, align 1, !tbaa !13
  %28 = load ptr, ptr %6, align 8, !tbaa !7
  %29 = getelementptr inbounds nuw i8, ptr %28, i32 1
  store ptr %29, ptr %6, align 8, !tbaa !7
  br label %31

30:                                               ; preds = %18
  store ptr null, ptr %6, align 8, !tbaa !7
  br label %31

31:                                               ; preds = %30, %26
  %32 = load ptr, ptr %3, align 8, !tbaa !3
  %33 = load ptr, ptr %5, align 8, !tbaa !11
  %34 = load i32, ptr %8, align 4, !tbaa !9
  %35 = sext i32 %34 to i64
  %36 = getelementptr inbounds ptr, ptr %33, i64 %35
  %37 = load ptr, ptr %36, align 8, !tbaa !7
  %38 = call zeroext i1 @quickmatch(ptr noundef %32, ptr noundef %37)
  br i1 %38, label %39, label %73

39:                                               ; preds = %31
  %40 = load ptr, ptr %6, align 8, !tbaa !7
  %41 = icmp ne ptr null, %40
  br i1 %41, label %42, label %69

42:                                               ; preds = %39
  %43 = load ptr, ptr %6, align 8, !tbaa !7
  %44 = load i8, ptr %43, align 1, !tbaa !13
  %45 = sext i8 %44 to i32
  %46 = icmp eq i32 42, %45
  br i1 %46, label %51, label %47

47:                                               ; preds = %42
  %48 = load ptr, ptr %6, align 8, !tbaa !7
  %49 = call i32 @strcmp(ptr noundef %48, ptr noundef @.str) #13
  %50 = icmp eq i32 0, %49
  br i1 %50, label %51, label %61

51:                                               ; preds = %47, %42
  %52 = load ptr, ptr %3, align 8, !tbaa !3
  %53 = getelementptr inbounds nuw %struct.prte_node_t, ptr %52, i32 0, i32 12
  %54 = load i32, ptr %53, align 4, !tbaa !14
  %55 = load ptr, ptr %3, align 8, !tbaa !3
  %56 = getelementptr inbounds nuw %struct.prte_node_t, ptr %55, i32 0, i32 14
  %57 = load i32, ptr %56, align 4, !tbaa !27
  %58 = sub nsw i32 %54, %57
  %59 = load i32, ptr %7, align 4, !tbaa !9
  %60 = add nsw i32 %59, %58
  store i32 %60, ptr %7, align 4, !tbaa !9
  br label %68

61:                                               ; preds = %47
  %62 = load ptr, ptr %6, align 8, !tbaa !7
  %63 = call i64 @strtol(ptr noundef %62, ptr noundef null, i32 noundef 10) #12
  %64 = load i32, ptr %7, align 4, !tbaa !9
  %65 = sext i32 %64 to i64
  %66 = add nsw i64 %65, %63
  %67 = trunc i64 %66 to i32
  store i32 %67, ptr %7, align 4, !tbaa !9
  br label %68

68:                                               ; preds = %61, %51
  br label %72

69:                                               ; preds = %39
  %70 = load i32, ptr %7, align 4, !tbaa !9
  %71 = add nsw i32 %70, 1
  store i32 %71, ptr %7, align 4, !tbaa !9
  br label %72

72:                                               ; preds = %69, %68
  br label %73

73:                                               ; preds = %72, %31
  br label %74

74:                                               ; preds = %73
  %75 = load i32, ptr %8, align 4, !tbaa !9
  %76 = add nsw i32 %75, 1
  store i32 %76, ptr %8, align 4, !tbaa !9
  br label %11, !llvm.loop !28

77:                                               ; preds = %11
  %78 = load ptr, ptr %5, align 8, !tbaa !11
  call void @PMIx_Argv_free(ptr noundef %78)
  %79 = load i32, ptr %7, align 4, !tbaa !9
  call void @llvm.lifetime.end.p0(i64 4, ptr %8) #12
  call void @llvm.lifetime.end.p0(i64 4, ptr %7) #12
  call void @llvm.lifetime.end.p0(i64 8, ptr %6) #12
  call void @llvm.lifetime.end.p0(i64 8, ptr %5) #12
  ret i32 %79
}