; Function Attrs: nounwind uwtable
define i32 @prte_util_dash_host_compute_slots(ptr noundef readonly captures(none) %0, ptr noundef %1) local_unnamed_addr #0 {
  %3 = tail call ptr @PMIx_Argv_split(ptr noundef %1, i32 noundef 44) #15
  %4 = load ptr, ptr %3, align 8, !tbaa !3
  %.not32 = icmp eq ptr %4, null
  br i1 %.not32, label %._crit_edge, label %.lr.ph

.lr.ph:                                           ; preds = %2
  %5 = getelementptr inbounds nuw i8, ptr %0, i64 220
  %6 = getelementptr inbounds nuw i8, ptr %0, i64 228
  br label %7

7:                                                ; preds = %.lr.ph, %32
  %indvars.iv = phi i64 [ 0, %.lr.ph ], [ %indvars.iv.next, %32 ]
  %8 = phi ptr [ %4, %.lr.ph ], [ %34, %32 ]
  %.02133 = phi i32 [ 0, %.lr.ph ], [ %.1, %32 ]
  %9 = tail call ptr @strchr(ptr noundef nonnull dereferenceable(1) %8, i32 noundef 58) #16
  %.not25 = icmp eq ptr %9, null
  br i1 %.not25, label %.thread, label %10

10:                                               ; preds = %7
  %11 = getelementptr inbounds nuw ptr, ptr %3, i64 %indvars.iv
  store i8 0, ptr %9, align 1, !tbaa !8
  %12 = getelementptr inbounds nuw i8, ptr %9, i64 1
  %13 = load ptr, ptr %11, align 8, !tbaa !3
  %14 = tail call fastcc zeroext i1 @quickmatch(ptr noundef %0, ptr noundef %13)
  br i1 %14, label %17, label %32

.thread:                                          ; preds = %7
  %15 = tail call fastcc zeroext i1 @quickmatch(ptr noundef %0, ptr noundef nonnull %8)
  %16 = zext i1 %15 to i32
  %spec.select = add nsw i32 %.02133, %16
  br label %32

17:                                               ; preds = %10
  %18 = load i8, ptr %12, align 1, !tbaa !8
  %19 = icmp eq i8 %18, 42
  br i1 %19, label %23, label %20

20:                                               ; preds = %17
  %21 = tail call i32 @strcmp(ptr noundef nonnull dereferenceable(1) %12, ptr noundef nonnull dereferenceable(5) @.str) #16
  %22 = icmp eq i32 %21, 0
  br i1 %22, label %23, label %28

23:                                               ; preds = %20, %17
  %24 = load i32, ptr %5, align 4, !tbaa !9
  %25 = load i32, ptr %6, align 4, !tbaa !24
  %26 = add i32 %24, %.02133
  %27 = sub i32 %26, %25
  br label %32

28:                                               ; preds = %20
  %29 = tail call i64 @strtol(ptr noundef nonnull captures(none) %12, ptr noundef null, i32 noundef 10) #15
  %30 = trunc i64 %29 to i32
  %31 = add i32 %.02133, %30
  br label %32

32:                                               ; preds = %.thread, %10, %23, %28
  %.1 = phi i32 [ %27, %23 ], [ %31, %28 ], [ %.02133, %10 ], [ %spec.select, %.thread ]
  %indvars.iv.next = add nuw nsw i64 %indvars.iv, 1
  %33 = getelementptr inbounds nuw ptr, ptr %3, i64 %indvars.iv.next
  %34 = load ptr, ptr %33, align 8, !tbaa !3
  %.not = icmp eq ptr %34, null
  br i1 %.not, label %._crit_edge, label %7, !llvm.loop !25

._crit_edge:                                      ; preds = %32, %2
  %.021.lcssa = phi i32 [ 0, %2 ], [ %.1, %32 ]
  tail call void @PMIx_Argv_free(ptr noundef nonnull %3) #15
  ret i32 %.021.lcssa
}